ccopy_reg
_reconstructor
p0
(c__main__
KnapsackData
p1
c__builtin__
object
p2
Ntp3
Rp4
(dp5
S'knapsacks'
p6
I1
sS'name'
p7
S'knapsack_400'
p8
sS'items'
p9
I400
sS'capacities'
p10
(lp11
I1500
asS'values'
p12
(lp13
I42
aI100
aI91
aI27
aI145
aI132
aI139
aI92
aI125
aI111
aI19
aI56
aI61
aI147
aI135
aI22
aI23
aI70
aI57
aI146
aI132
aI32
aI121
aI54
aI28
aI111
aI7
aI83
aI138
aI34
aI37
aI89
aI14
aI101
aI70
aI42
aI104
aI49
aI20
aI79
aI99
aI85
aI129
aI66
aI19
aI67
aI130
aI27
aI100
aI78
aI87
aI140
aI12
aI128
aI84
aI136
aI146
aI92
aI51
aI25
aI83
aI47
aI149
aI31
aI66
aI52
aI11
aI94
aI44
aI128
aI142
aI24
aI102
aI24
aI58
aI43
aI141
aI73
aI53
aI94
aI94
aI105
aI129
aI28
aI48
aI11
aI60
aI135
aI11
aI58
aI79
aI112
aI102
aI71
aI59
aI63
aI143
aI113
aI15
aI67
aI74
aI135
aI28
aI88
aI126
aI150
aI55
aI121
aI52
aI139
aI35
aI142
aI64
aI130
aI44
aI140
aI145
aI109
aI150
aI136
aI115
aI55
aI49
aI8
aI121
aI66
aI45
aI56
aI28
aI45
aI7
aI43
aI111
aI42
aI148
aI100
aI75
aI100
aI109
aI102
aI6
aI135
aI92
aI33
aI76
aI110
aI76
aI21
aI6
aI127
aI80
aI86
aI146
aI112
aI60
aI83
aI17
aI21
aI82
aI89
aI137
aI83
aI33
aI29
aI33
aI10
aI67
aI45
aI131
aI18
aI126
aI112
aI27
aI26
aI141
aI13
aI144
aI42
aI109
aI13
aI120
aI100
aI126
aI110
aI68
aI20
aI97
aI121
aI62
aI135
aI111
aI79
aI51
aI28
aI19
aI47
aI135
aI136
aI10
aI19
aI10
aI126
aI43
aI122
aI62
aI64
aI45
aI16
aI140
aI18
aI118
aI59
aI64
aI117
aI91
aI107
aI126
aI62
aI42
aI7
aI84
aI122
aI145
aI102
aI135
aI88
aI8
aI110
aI99
aI77
aI101
aI19
aI22
aI85
aI14
aI79
aI87
aI17
aI27
aI60
aI23
aI112
aI131
aI115
aI98
aI29
aI119
aI121
aI85
aI14
aI23
aI129
aI35
aI85
aI74
aI119
aI52
aI92
aI120
aI138
aI120
aI74
aI72
aI57
aI23
aI12
aI63
aI96
aI71
aI23
aI128
aI147
aI90
aI148
aI20
aI75
aI122
aI28
aI142
aI118
aI149
aI97
aI73
aI42
aI10
aI89
aI127
aI115
aI18
aI116
aI123
aI54
aI13
aI24
aI46
aI29
aI135
aI19
aI75
aI26
aI106
aI71
aI77
aI147
aI116
aI97
aI57
aI104
aI148
aI6
aI22
aI91
aI57
aI64
aI132
aI78
aI40
aI21
aI83
aI138
aI91
aI112
aI104
aI126
aI61
aI112
aI146
aI130
aI33
aI64
aI32
aI61
aI29
aI18
aI82
aI63
aI130
aI67
aI97
aI53
aI10
aI99
aI76
aI11
aI62
aI13
aI135
aI139
aI43
aI42
aI91
aI150
aI115
aI85
aI56
aI16
aI44
aI43
aI71
aI64
aI129
aI33
aI75
aI91
aI5
aI80
aI115
aI121
aI144
aI90
aI9
aI106
aI61
aI101
aI35
aI37
aI47
aI123
aI96
aI25
aI57
aI148
aI142
aI119
aI72
aI137
aI85
aI10
aI111
aI87
aI45
aI9
aI142
aI64
aI36
aI40
aI8
aI41
aI133
aI69
asS'constraints'
p14
(lp15
(lp16
I42
aI61
aI84
aI14
aI86
aI37
aI35
aI86
aI90
aI84
aI20
aI12
aI54
aI68
aI55
aI90
aI74
aI35
aI15
aI88
aI78
aI18
aI67
aI21
aI24
aI51
aI43
aI62
aI89
aI89
aI23
aI49
aI62
aI56
aI45
aI39
aI93
aI90
aI69
aI76
aI63
aI71
aI67
aI87
aI47
aI25
aI55
aI94
aI28
aI52
aI99
aI19
aI57
aI58
aI89
aI48
aI38
aI76
aI74
aI92
aI96
aI42
aI63
aI85
aI100
aI89
aI15
aI28
aI72
aI89
aI36
aI68
aI67
aI35
aI69
aI11
aI17
aI31
aI81
aI88
aI38
aI60
aI87
aI64
aI60
aI36
aI29
aI75
aI72
aI67
aI84
aI66
aI61
aI23
aI32
aI83
aI10
aI45
aI99
aI70
aI48
aI22
aI64
aI62
aI15
aI76
aI70
aI14
aI16
aI67
aI28
aI29
aI81
aI35
aI56
aI41
aI59
aI18
aI18
aI17
aI24
aI62
aI63
aI97
aI27
aI82
aI97
aI23
aI86
aI91
aI43
aI81
aI38
aI17
aI69
aI100
aI88
aI50
aI86
aI74
aI87
aI65
aI58
aI100
aI88
aI11
aI84
aI31
aI50
aI30
aI26
aI72
aI30
aI75
aI43
aI22
aI25
aI64
aI74
aI56
aI63
aI91
aI21
aI19
aI93
aI42
aI82
aI22
aI29
aI53
aI77
aI58
aI22
aI69
aI100
aI95
aI50
aI91
aI53
aI47
aI18
aI97
aI62
aI31
aI44
aI36
aI65
aI97
aI91
aI36
aI53
aI83
aI38
aI85
aI41
aI95
aI50
aI13
aI26
aI73
aI78
aI95
aI38
aI69
aI43
aI80
aI62
aI38
aI41
aI59
aI97
aI51
aI87
aI50
aI65
aI89
aI54
aI39
aI12
aI33
aI72
aI60
aI95
aI51
aI28
aI39
aI45
aI19
aI18
aI46
aI66
aI85
aI28
aI53
aI18
aI41
aI28
aI50
aI54
aI96
aI86
aI56
aI81
aI82
aI24
aI12
aI82
aI58
aI54
aI74
aI99
aI70
aI70
aI64
aI70
aI55
aI44
aI38
aI45
aI16
aI81
aI32
aI94
aI71
aI17
aI10
aI41
aI88
aI11
aI64
aI68
aI76
aI37
aI54
aI17
aI94
aI96
aI35
aI38
aI16
aI33
aI86
aI75
aI60
aI89
aI41
aI94
aI96
aI26
aI20
aI29
aI94
aI57
aI36
aI24
aI71
aI48
aI86
aI24
aI69
aI68
aI78
aI73
aI22
aI21
aI59
aI61
aI59
aI97
aI66
aI59
aI58
aI34
aI93
aI29
aI41
aI16
aI91
aI75
aI84
aI26
aI71
aI53
aI53
aI73
aI10
aI42
aI67
aI32
aI72
aI26
aI65
aI92
aI66
aI43
aI71
aI81
aI35
aI80
aI57
aI33
aI95
aI79
aI56
aI40
aI60
aI39
aI38
aI19
aI55
aI25
aI26
aI33
aI63
aI58
aI75
aI65
aI98
aI44
aI85
aI35
aI40
aI28
aI69
aI85
aI76
aI67
aI53
aI74
aI38
aI21
aI63
aI77
aI59
aI61
aI58
aI36
aI56
aI85
aI25
aI93
aI25
aI20
aI89
aI86
aI24
aI90
aI80
aI87
aI71
aI13
aI27
aI87
aI19
aI89
aI86
aI26
aI56
aI60
aI22
aasb.