ccopy_reg
_reconstructor
p0
(c__main__
KnapsackData
p1
c__builtin__
object
p2
Ntp3
Rp4
(dp5
S'knapsacks'
p6
F2.0
sS'name'
p7
S'weing1'
p8
sS'items'
p9
F28.0
sS'capacities'
p10
(lp11
F600.0
aF600.0
asS'values'
p12
(lp13
F1898.0
aF440.0
aF22507.0
aF270.0
aF14148.0
aF3100.0
aF4650.0
aF30800.0
aF615.0
aF4975.0
aF1160.0
aF4225.0
aF510.0
aF11880.0
aF479.0
aF440.0
aF490.0
aF330.0
aF110.0
aF560.0
aF24355.0
aF2885.0
aF11748.0
aF4550.0
aF750.0
aF3720.0
aF1950.0
aF10500.0
asS'constraints'
p14
(lp15
(lp16
F45.0
aF0.0
aF85.0
aF150.0
aF65.0
aF95.0
aF30.0
aF0.0
aF170.0
aF0.0
aF40.0
aF25.0
aF20.0
aF0.0
aF0.0
aF25.0
aF0.0
aF0.0
aF25.0
aF0.0
aF165.0
aF0.0
aF85.0
aF0.0
aF0.0
aF0.0
aF0.0
aF100.0
aa(lp17
F30.0
aF20.0
aF125.0
aF5.0
aF80.0
aF25.0
aF35.0
aF73.0
aF12.0
aF15.0
aF15.0
aF40.0
aF5.0
aF10.0
aF10.0
aF12.0
aF10.0
aF9.0
aF0.0
aF20.0
aF60.0
aF40.0
aF50.0
aF36.0
aF49.0
aF40.0
aF19.0
aF150.0
aasb.